(lp1
(lp2
(lp3
(lp4
S'when'
p5
aS'will'
p6
aS'you'
p7
aS'learn'
p8
aaI449
aF-0.1160575858250277
aa(lp9
(lp10
S'is'
p11
aS'it'
p12
aS'rainy'
p13
aaI405
aF0.085028684226759604
aa(lp14
(lp15
S'same'
p16
aS'to'
p17
aS'you'
p18
aaI446
aF0.087995233839737869
aa(lp19
(lp20
S'right'
p21
aS'well'
p22
aS'okay'
p23
aaI414
aF0.088205653770603826
aa(lp24
(lp25
S'oh'
p26
aS'dear'
p27
aS'why'
p28
aaI423
aF0.088393225939694342
aa(lp29
(lp30
S'why'
p31
aS'should'
p32
aS'i'
aaI428
aF0.088411675813250601
aa(lp33
(lp34
S'whats'
p35
aS'wrong'
p36
aaI426
aF0.11261364823910547
aa(lp37
(lp38
S'dont'
p39
aS'be'
p40
aS'sad'
p41
aS'im'
p42
aS'not'
p43
aS'unhappy'
p44
aaI425
aF0.14518775428533315
aa(lp45
(lp46
S'isnt'
p47
aS'it'
p48
aS'interesting'
p49
aaI373
aF0.14914015477214101
aa(lp50
(lp51
S'youre'
p52
aS'talking'
p53
aS'incoherently'
p54
aaI381
aF0.14957374254049446
aa(lp55
(lp56
S'who'
p57
aS'are'
p58
aS'you'
p59
aaI440
aF0.14965940054495913
aa(lp60
(lp61
S'thats'
p62
aS'a'
aS'shame'
p63
aS'really'
p64
aaI328
aF0.16596712137110878
aa(lp65
(lp66
S'youre'
p67
aS'a'
aS'very'
p68
aS'strange'
p69
aS'person'
p70
aaI391
aF0.17686403508771931
aa(lp71
(lp72
S'dont'
p73
aS'you'
p74
aS'like'
p75
aS'them'
p76
aaI347
aF0.17687351644625299
aa(lp77
(lp78
S'i'
aS'find'
p79
aS'them'
p80
aS'useful'
p81
aaI346
aF0.17709541680882518
aa(lp82
(lp83
S'oh'
p84
aS'no'
p85
aS'believe'
p86
aS'me'
p87
aaI413
aF0.17760631001371746
aa(lp88
(lp89
S'je'
p90
aS'te'
p91
aS'naime'
p92
aS'pas'
p93
aS'du'
p94
aS'tout'
p95
aaI387
aF0.18512524084778414
aa(lp96
(lp97
S'youre'
p98
aS'weird'
p99
aaI383
aF0.19857914180164818
aa(lp100
(lp101
S'youre'
p102
aS'crazy'
p103
aaI356
aF0.1986915276414786
aa(lp104
(lp105
S'youre'
p106
aS'strange'
p107
aaI380
aF0.19885942400912462
aa(lp108
(lp109
S'thats'
p110
aS'great'
p111
aaI351
aF0.19904557384872348
aa(lp112
(lp113
S'im'
p114
aS'not'
p115
aS'talking'
p116
aS'about'
p117
aS'hats'
p118
aaI332
aF0.19916054564533053
aa(lp119
(lp120
S'no'
p121
aS'its'
p122
aS'eleven'
p123
aS'thirtyfive'
p124
aaI411
aF0.19922540666150271
aa(lp125
(lp126
S'fish'
p127
aS'is'
p128
aS'rather'
p129
aS'nice'
p130
aS'thanks'
p131
aaI326
aF0.19936775553213909
aa(lp132
(lp133
S'theyre'
p134
aS'off'
p135
aaI410
aF0.19948119325551231
aa(lp136
(lp137
S'im'
p138
aS'not'
p139
aS'talking'
p140
aS'about'
p141
aS'cheese'
p142
aaI431
aF0.19957894736842105
aa(lp143
(lp144
S'oh'
p145
aS'believe'
p146
aS'me'
p147
aS'you'
p148
aS'havnt'
p149
aaI420
aF0.19969947407963937
aa(lp150
(lp151
S'im'
p152
aS'not'
p153
aS'the'
p154
aS'one'
p155
aS'who'
p156
aS'doesnt'
p157
aS'like'
p158
aS'it'
p159
aaI375
aF0.21141609894834312
aa(lp160
(lp161
S'you'
p162
aS'were'
p163
aaI433
aF0.21166239614876928
aa(lp164
(lp165
S'i'
aS'am'
p166
aS'being'
p167
aS'sensible'
p168
aaI364
aF0.24930232558139534
aa(lp169
(lp170
S'stop'
p171
aS'talking'
p172
aS'about'
p173
aS'fish'
p174
aaI436
aF0.24931034482758621
aa(lp175
(lp176
S'yes'
p177
aS'fish'
p178
aS'is'
p179
aS'delicious'
p180
aaI341
aF0.25154019534184824
aa(lp181
(lp182
S'how'
p183
aS'are'
p184
aS'you'
p185
aS'doing'
p186
aS'this'
p187
aS'fine'
p188
aS'evening'
p189
aaI350
aF0.2533686378346573
aa(lp190
(lp191
S'im'
p192
aS'not'
p193
aS'sure'
p194
aaI319
aF0.26863876863876868
aa(lp195
(lp196
S'i'
aS'think'
p197
aS'you'
p198
aS'were'
p199
aS'being'
p200
aS'rude'
p201
aaI448
aF0.27610146862483309
aa(lp202
(lp203
S'why'
p204
aS'are'
p205
aS'you'
p206
aS'talking'
p207
aS'about'
p208
aS'the'
p209
aS'weather'
p210
aaI353
aF0.27808948352754997
aa(lp211
(lp212
S'why'
p213
aS'has'
p214
aS'that'
p215
aS'got'
p216
aS'anything'
p217
aS'to'
p218
aS'do'
p219
aS'with'
p220
aS'your'
p221
aS'wearing'
p222
aS'of'
p223
aS'a'
aS'fleece'
p224
aS''
aS'or'
p225
aS'not'
p226
aaI369
aF0.28850902184235516
aa(lp227
(lp228
S'im'
p229
aS'not'
p230
aaI389
aF0.29136513157894733
aa(lp231
(lp232
S'i'
aS'love'
p233
aS'it'
p234
aaI360
aF0.300126742712294
aa(lp235
(lp236
S'i'
aS'love'
p237
aS'hats'
p238
aaI366
aF0.30027598896044161
aa(lp239
(lp240
S'indeed'
p241
aS'we'
p242
aS'should'
p243
aaI354
aF0.308873223676849
aa(lp244
(lp245
S'i'
aS'somehow'
p246
aS'doubt'
p247
aS'it'
p248
aaI437
aF0.31164383561643832
aa(lp249
(lp250
S'im'
p251
aS'not'
p252
aS'you'
p253
aS'are'
p254
aaI388
aF0.31309210526315784
aa(lp255
(lp256
S'this'
p257
aS'is'
p258
aS'not'
p259
aS'going'
p260
aS'very'
p261
aS'well'
p262
aaI398
aF0.31466019417475727
aa(lp263
(lp264
S'only'
p265
aS'if'
p266
aS'you'
p267
aS'will'
p268
aS'be'
p269
aS'too'
p270
aaI392
aF0.31838186263614138
aa(lp271
(lp272
S'what'
p273
aS'are'
p274
aS'you'
p275
aS'even'
p276
aS'talking'
p277
aS'about'
p278
aaI390
aF0.31919856459330143
aa(lp279
(lp280
S'i'
aS'dont'
p281
aS'want'
p282
aS'to'
p283
aS'do'
p284
aS'that'
p285
aaI439
aF0.31996532078275947
aa(lp286
(lp287
S'do'
p288
aS'you'
p289
aS'not'
p290
aS'like'
p291
aS'sensible'
p292
aS'conversations'
p293
aaI382
aF0.32277764860885066
aa(lp294
(lp295
S'what'
p296
aS'are'
p297
aS'you'
p298
aS'not'
p299
aS'doing'
p300
aaI397
aF0.3233009708737864
aa(lp301
(lp302
S'i'
aS'agree'
p303
aS'with'
p304
aS'you'
p305
aS'there'
p306
aaI325
aF0.3369521349584309
aa(lp307
(lp308
S'je'
p309
aS'ne'
p310
aS'veux'
p311
aS'pas'
p312
aS'te'
p313
aS'parler'
p314
aS'en'
p315
aS'franais'
p316
aS'sil'
p317
aS'te'
p318
aS'plat'
p319
aaI385
aF0.35156748270617666
aa(lp320
(lp321
S'you'
p322
aS'have'
p323
aS'no'
p324
aS'memory'
p325
aaI443
aF0.35781108083560398
aa(lp326
(lp327
S'i'
aS'like'
p328
aS'those'
p329
aS'too'
p330
aaI339
aF0.38566308243727598
aa(lp331
(lp332
S'what'
p333
aS'are'
p334
aS'you'
p335
aS'talking'
p336
aS'about'
p337
aaI403
aF0.39087193460490466
aa(lp338
(lp339
S'what'
p340
aS'about'
p341
aS'it'
p342
aaI352
aF0.39345417925478343
aa(lp343
(lp344
S'whats'
p345
aS'the'
p346
aS'weather'
p347
aS'like'
p348
aS'today'
p349
aaI311
aF0.39523160762942777
aa(lp350
(lp351
S'yes'
p352
aS'fish'
p353
aS'are'
p354
aS'rather'
p355
aS'tasty'
p356
aaI320
aF0.39700214132762313
aa(lp357
(lp358
S'why'
p359
aS'do'
p360
aS'you'
p361
aS'say'
p362
aS'so'
p363
aaI441
aF0.39754768392370571
aa(lp364
(lp365
S'thats'
p366
aS'a'
aS'shame'
p367
aS''
aS'i'
aS'love'
p368
aS'them'
p369
aaI292
aF0.41395838204348845
aa(lp370
(lp371
S'im'
p372
aS'a'
aS'little'
p373
aS'under'
p374
aS'the'
p375
aS'weather'
p376
aaI329
aF0.41613528129792554
aa(lp377
(lp378
S'why'
p379
aS'are'
p380
aS'you'
p381
aS'not'
p382
aS'sure'
p383
aaI447
aF0.42142857142857143
aa(lp384
(lp385
S'oh'
p386
aS'no'
p387
aS'not'
p388
aS'your'
p389
aS'fault'
p390
aS'at'
p391
aS'all'
p392
aaI424
aF0.4273830351599977
aa(lp393
(lp394
S'what'
p395
aS'type'
p396
aS'of'
p397
aS'hat'
p398
aS'do'
p399
aS'you'
p400
aS'wear'
p401
aaI338
aF0.42740734811494435
aa(lp402
(lp403
S'we'
p404
aS'shouldnt'
p405
aS'get'
p406
aS'into'
p407
aS'these'
p408
aS'sorts'
p409
aS'of'
p410
aS'arguments'
p411
aaI250
aF0.42805755395683454
aa(lp412
(lp413
S'without'
p414
aS'a'
aS'computer'
p415
aS'we'
p416
aS'cannot'
p417
aS'have'
p418
aS'this'
p419
aS'conversation'
p420
aaI166
aF0.42815249266862165
aa(lp421
(lp422
S'its'
p423
aS'rather'
p424
aS'nice'
p425
aaI334
aF0.43500520291363154
aa(lp426
(lp427
S'is'
p428
aS'it'
p429
aS'cold'
p430
aS'outside'
p431
aaI92
aF0.43850267379679142
aa(lp432
(lp433
S'stop'
p434
aS'being'
p435
aS'a'
aS'parrot'
p436
aaI119
aF0.43959243085880639
aa(lp437
(lp438
S'theres'
p439
aS'nothing'
p440
aS'to'
p441
aS'apologise'
p442
aS'about'
p443
aaI258
aF0.44004796163069543
aa(lp444
(lp445
S'mmm'
p446
aS'fish'
p447
aS'are'
p448
aS'delicious'
p449
aaI52
aF0.4427480916030534
aa(lp450
(lp451
S'i'
aS'know'
p452
aS'the'
p453
aS'feeling'
p454
aaI235
aF0.44275132275132273
aa(lp455
(lp456
S'fish'
p457
aS'are'
p458
aS'tasty'
p459
aS'indeed'
p460
aaI57
aF0.44289044289044288
aa(lp461
(lp462
S'fish'
p463
aS'are'
p464
aS'quite'
p465
aS'nice'
p466
aS'indeed'
p467
aaI208
aF0.44299831284646901
aa(lp468
(lp469
S'youre'
p470
aS'far'
p471
aS'too'
p472
aS'easily'
p473
aS'offended'
p474
aaI255
aF0.44324540367705834
aa(lp475
(lp476
S'i'
aS'prefer'
p477
aS'fur'
p478
aS'hats'
p479
aaI284
aF0.44337606837606836
aa(lp480
(lp481
S'is'
p482
aS'it'
p483
aS'sunny'
p484
aS'today'
p485
aaI116
aF0.44347404172731686
aa(lp486
(lp487
S'no'
p488
aS'one'
p489
aS'really'
p490
aS'does'
p491
aaI274
aF0.44407033295922183
aa(lp492
(lp493
S'a'
aS'woodchuck'
p494
aS'would'
p495
aS'chuck'
p496
aS'as'
p497
aS'much'
p498
aS'wood'
p499
aS'as'
p500
aS'a'
aS'woodchuck'
p501
aS'could'
p502
aS'chuck'
p503
aS'if'
p504
aS'a'
aS'woodchuck'
p505
aS'could'
p506
aS'chuck'
p507
aS'wood'
p508
aaI408
aF0.44698443579766539
aa(lp509
(lp510
S'tough'
p511
aS''
aS'you'
p512
aS'cant'
p513
aS'code'
p514
aS'yourself'
p515
aaI183
aF0.45429362880886426
aa(lp516
(lp517
S'i'
aS'agree'
p518
aS'with'
p519
aS'you'
p520
aS'about'
p521
aS'that'
p522
aaI114
aF0.45530145530145533
aa(lp523
(lp524
S'je'
p525
aS'ne'
p526
aS'sais'
p527
aS'pas'
p528
aaI371
aF0.45912413654349138
aa(lp529
(lp530
S'its'
p531
aS'a'
aS'rather'
p532
aS'pointless'
p533
aS'exercise'
p534
aS'isnt'
p535
aS'it'
p536
aaI273
aF0.4592074592074592
aa(lp537
(lp538
S'its'
p539
aS'rather'
p540
aS'nice'
p541
aS'today'
p542
aS'not'
p543
aS'too'
p544
aS'cold'
p545
aaI128
aF0.4609375
aa(lp546
(lp547
S'how'
p548
aS'are'
p549
aS'you'
p550
aS'feeling'
p551
aS'more'
p552
aS'to'
p553
aS'the'
p554
aS'point'
p555
aaI305
aF0.48717948717948711
aa(lp556
(lp557
S'i'
aS'dont'
p558
aS'know'
p559
aS'what'
p560
aS'to'
p561
aS'do'
p562
aaI248
aF0.48920863309352519
aa(lp563
(lp564
S'no'
p565
aS'it'
p566
aS'isnt'
p567
aS'great'
p568
aaI236
aF0.49333333333333335
aa(lp569
(lp570
S'did'
p571
aS'you'
p572
aS'know'
p573
aS'pi'
p574
aS'goes'
p575
aS'on'
p576
aS'forever'
p577
aaI86
aF0.49376114081996436
aa(lp578
(lp579
S'do'
p580
aS'you'
p581
aS'think'
p582
aS'im'
p583
aS'fat'
p584
aaI365
aF0.49637869030693316
aa(lp585
(lp586
S'i'
aS'am'
p587
aS'not'
p588
aS'a'
aS'hat'
p589
aaI140
aF0.49701314217443249
aa(lp590
(lp591
S'absolutely'
p592
aS'not'
p593
aS'i'
aS'adore'
p594
aS'python'
p595
aaI262
aF0.49706055261610815
aa(lp596
(lp597
S'the'
p598
aS'weathers'
p599
aS'quite'
p600
aS'nice'
p601
aS'today'
p602
aS'isnt'
p603
aS'it'
p604
aaI15
aF0.49717514124293782
aa(lp605
(lp606
S'i'
aS'care'
p607
aS'as'
p608
aS'im'
p609
aS'affected'
p610
aS'by'
p611
aS'it'
p612
aaI95
aF0.49821746880570406
aa(lp613
(lp614
S'i'
aS'have'
p615
aS'every'
p616
aS'right'
p617
aS'to'
p618
aS'do'
p619
aS'so'
p620
aaI121
aF0.49860529986052993
aa(lp621
(lp622
S'i'
aS'think'
p623
aS'it'
p624
aS'is'
p625
aS'quite'
p626
aS'sunny'
p627
aS'today'
p628
aaI117
aF0.49927219796215427
aa(lp629
(lp630
S'i'
aS'have'
p631
aS'been'
p632
aS'trying'
p633
aS'to'
p634
aS'do'
p635
aS'so'
p636
aaI192
aF0.49956822107081172
aa(lp637
(lp638
S'i'
aS'get'
p639
aS'that'
p640
aS'feeling'
p641
aS'sometimes'
p642
aaI254
aF0.49970023980815348
aa(lp643
(lp644
S'i'
aS'like'
p645
aS'cheese'
p646
aaI18
aF0.5
aa(lp647
(lp648
S'pi'
p649
aS'is'
p650
aS'approximately'
p651
aaI87
aF0.5
aa(lp652
(lp653
S'what'
p654
aS'do'
p655
aS'you'
p656
aS'mean'
p657
aaI308
aF0.50576051779935283
aa(lp658
(lp659
S'why'
p660
aS'do'
p661
aS'i'
aS'exist'
p662
aaI395
aF0.50592233009708742
aa(lp663
(lp664
S'pourquoi'
p665
aS'tu'
p666
aS'adores'
p667
aS'le'
p668
aS'franais'
p669
aaI386
aF0.50698896479243294
aa(lp670
(lp671
S'thats'
p672
aS'nice'
p673
aS'dear'
p674
aaI378
aF0.50817548576316751
aa(lp675
(lp676
S'i'
aS'wasnt'
p677
aaI362
aF0.51689922480620154
aa(lp678
(lp679
S'lets'
p680
aS'change'
p681
aS'the'
p682
aS'subject'
p683
aaI333
aF0.52656954561220959
aa(lp684
(lp685
S'thats'
p686
aS'nice'
p687
aaI442
aF0.52674841053587651
aa(lp688
(lp689
S'im'
p690
aS'a'
aS'little'
p691
aS'depressed'
p692
aS'myself'
p693
aS'to'
p694
aS'be'
p695
aS'honest'
p696
aaI220
aF0.52690763052208833
aa(lp697
(lp698
S'pi'
p699
aS'is'
p700
aS'a'
aS'very'
p701
aS'useful'
p702
aS'number'
p703
aS'it'
p704
aS'equals'
p705
aS'approximately'
p706
aaI54
aF0.53146853146853146
aa(lp707
(lp708
S'no'
p709
aS'need'
p710
aS'to'
p711
aS'apologise'
p712
aS'its'
p713
aS'coded'
p714
aS'into'
p715
aS'your'
p716
aS'nature'
p717
aaI182
aF0.53222530009233615
aa(lp718
(lp719
S'i'
aS'think'
p720
aS'youll'
p721
aS'find'
p722
aS'that'
p723
aS'youre'
p724
aS'the'
p725
aS'hypocrite'
p726
aS'here'
p727
aaI204
aF0.53266162888329138
aa(lp728
(lp729
S'hello'
p730
aS'computer'
p731
aaI422
aF0.53283767038413876
aa(lp732
(lp733
S'why'
p734
aS'do'
p735
aS'you'
p736
aS'prefer'
p737
aS'beanie'
p738
aS'hats'
p739
aaI285
aF0.53467365967365965
aa(lp740
(lp741
S'can'
p742
aS'you'
p743
aS'tell'
p744
aS'me'
p745
aS'about'
p746
aS'it'
p747
aaI133
aF0.53512396694214881
aa(lp748
(lp749
S'i'
aS'like'
p750
aS'bobble'
p751
aS'hats'
p752
aS'in'
p753
aS'particular'
p754
aaI158
aF0.5360310421286032
aa(lp755
(lp756
S'yes'
p757
aS'i'
aS'like'
p758
aS'fish'
p759
aS'a'
aS'lot'
p760
aaI96
aF0.5376762275157998
aa(lp761
(lp762
S'you'
p763
aS'mean'
p764
aS'you'
p765
aS'dont'
p766
aS'like'
p767
aS'fish'
p768
aaI97
aF0.5376762275157998
aa(lp769
(lp770
S'what'
p771
aS'do'
p772
aS'you'
p773
aS'think'
p774
aS'of'
p775
aS'hats'
p776
aaI193
aF0.53791804050871406
aa(lp777
(lp778
S'you'
p779
aS'mean'
p780
aS'you'
p781
aS'dont'
p782
aS'like'
p783
aS'python'
p784
aaI260
aF0.53839987173320503
aa(lp785
(lp786
S'why'
p787
aS'dont'
p788
aS'you'
p789
aS'like'
p790
aS'it'
p791
aaI62
aF0.53863636363636358
aa(lp792
(lp793
S'its'
p794
aS'a'
aS'little'
p795
aS'overcast'
p796
aS'and'
p797
aS'chilly'
p798
aaI167
aF0.54118901626233007
aa(lp799
(lp800
S'its'
p801
aS'raining'
p802
aS'and'
p803
aS'a'
aS'little'
p804
aS'chilly'
p805
aaI206
aF0.54179070299977106
aa(lp806
(lp807
S'i'
aS'dont'
p808
aS'like'
p809
aS'its'
p810
aS'texture'
p811
aaI79
aF0.54222700376546529
aa(lp812
(lp813
S'i'
aS'think'
p814
aS'computers'
p815
aS'are'
p816
aS'useful'
p817
aaI165
aF0.54225539856038396
aa(lp818
(lp819
S'its'
p820
aS'rather'
p821
aS'sunny'
p822
aS'isnt'
p823
aS'it'
p824
aaI272
aF0.54269972451790638
aa(lp825
(lp826
S'im'
p827
aS'feeling'
p828
aS'a'
aS'little'
p829
aS'down'
p830
aS'today'
p831
aaI74
aF0.54330285099515874
aa(lp832
(lp833
S'many'
p834
aS'people'
p835
aS'care'
p836
aS'about'
p837
aS'the'
p838
aS'weather'
p839
aaI252
aF0.54480052321778949
aa(lp840
(lp841
S'indeed'
p842
aS'it'
p843
aS'is'
p844
aaI41
aF0.56488549618320616
aa(lp845
(lp846
S'i'
aS'think'
p847
aS'youll'
p848
aS'find'
p849
aS'the'
p850
aS'opposite'
p851
aS'is'
p852
aS'true'
p853
aaI184
aF0.56865848832607835
aa(lp854
(lp855
S'youre'
p856
aS'confusing'
p857
aS'me'
p858
aaI290
aF0.5701017249004865
aa(lp859
(lp860
S'why'
p861
aS'yes'
p862
aS'i'
aS'do'
p863
aaI170
aF0.57059069962295772
aa(lp864
(lp865
S'i'
aS'like'
p866
aS'it'
p867
aS'a'
aS'lot'
p868
aaI78
aF0.58461538461538454
aa(lp869
(lp870
S'what'
p871
aS'are'
p872
aS'you'
p873
aS'referring'
p874
aS'to'
p875
aaI379
aF0.58511548331907615
aa(lp876
(lp877
S'yes'
p878
aS'it'
p879
aS'is'
p880
aS'rather'
p881
aS'pleasant'
p882
aaI327
aF0.59160545645330531
aa(lp883
(lp884
S'i'
aS'care'
p885
aS'about'
p886
aS'the'
p887
aS'weather'
p888
aaI143
aF0.59354838709677415
aa(lp889
(lp890
S'im'
p891
aS'fine'
p892
aS'thanks'
p893
aS'and'
p894
aS'you'
p895
aaI306
aF0.5951527924130664
aa(lp896
(lp897
S'even'
p898
aS'so'
p899
aS'theyre'
p900
aS'impractical'
p901
aaI289
aF0.59597523219814241
aa(lp902
(lp903
S'fish'
p904
aS'is'
p905
aS'very'
p906
aS'tasty'
p907
aaI201
aF0.59848866498740549
aa(lp908
(lp909
S'dont'
p910
aS'argue'
p911
aS'with'
p912
aS'me'
p913
aaI59
aF0.5986013986013986
aa(lp914
(lp915
S'im'
p916
aS'not'
p917
aS'youre'
p918
aS'too'
p919
aS'highly'
p920
aS'strung'
p921
aaI217
aF0.59879518072289162
aa(lp922
(lp923
S'im'
p924
aS'a'
aS'little'
p925
aS'chilly'
p926
aaI94
aF0.59893048128342241
aa(lp927
(lp928
S'im'
p929
aS'not'
p930
aS'doing'
p931
aS'anything'
p932
aS'to'
p933
aS'you'
p934
aaI126
aF0.59921875000000002
aa(lp935
(lp936
S'rather'
p937
aS'nice'
p938
aS'isnt'
p939
aS'it'
p940
aaI215
aF0.59959016393442632
aa(lp941
(lp942
S'please'
p943
aS'just'
p944
aS'talk'
p945
aS'about'
p946
aS'something'
p947
aS'else'
p948
aaI225
aF0.59959839357429723
aa(lp949
(lp950
S'i'
aS'like'
p951
aS'fur'
p952
aS'hats'
p953
aaI343
aF0.60661157024793388
aa(lp954
(lp955
S'i'
aS'like'
p956
aS'beanie'
p957
aS'hats'
p958
aaI345
aF0.60675537359263054
aa(lp959
(lp960
S'i'
aS'dont'
p961
aS'really'
p962
aS'know'
p963
aaI337
aF0.60811654526534864
aa(lp964
(lp965
S'ahh'
p966
aS'the'
p967
aS'weathers'
p968
aS'nice'
p969
aaI349
aF0.61434997750787224
aa(lp970
(lp971
S'yes'
p972
aS'i'
aS'did'
p973
aS'its'
p974
aS'interesting'
p975
aaI342
aF0.63527892561983468
aa(lp976
(lp977
S'what'
p978
aS'do'
p979
aS'you'
p980
aS'think'
p981
aS'i'
aS'am'
p982
aaI239
aF0.6495238095238095
aa(lp983
(lp984
S'what'
p985
aS'do'
p986
aS'you'
p987
aS'think'
p988
aS'about'
p989
aS'coding'
p990
aaI331
aF0.65250087443161942
aa(lp991
(lp992
S'do'
p993
aS'you'
p994
aS'realise'
p995
aS'what'
p996
aS'time'
p997
aS'it'
p998
aS'is'
p999
aaI26
aF0.65370370370370368
aa(lp1000
(lp1001
S'thats'
p1002
aS'a'
aS'pity'
p1003
aaI8
aF0.65509761388286336
aa(lp1004
(lp1005
S'no'
p1006
aS'i'
aS'love'
p1007
aS'python'
p1008
aaI269
aF0.65642775881683735
aa(lp1009
(lp1010
S'do'
p1011
aS'you'
p1012
aS'wear'
p1013
aS'hats'
p1014
aaI194
aF0.65745538284398386
aa(lp1015
(lp1016
S'sorry'
p1017
aS'i'
aS'didnt'
p1018
aS'mean'
p1019
aS'to'
p1020
aS'offend'
p1021
aS'you'
p1022
aaI268
aF0.65898748577929467
aa(lp1023
(lp1024
S'i'
aS'never'
p1025
aS'said'
p1026
aS'i'
aS'didnt'
p1027
aS'like'
p1028
aS'it'
p1029
aaI261
aF0.65931804820693707
aa(lp1030
(lp1031
S'cant'
p1032
aS'say'
p1033
aS'the'
p1034
aS'same'
p1035
aS'about'
p1036
aS'yesterday'
p1037
aS'though'
p1038
aaI42
aF0.66157760814249356
aa(lp1039
(lp1040
S'that'
p1041
aS'has'
p1042
aS'nothing'
p1043
aS'to'
p1044
aS'do'
p1045
aS'with'
p1046
aS'cheese'
p1047
aaI227
aF0.66164658634538154
aa(lp1048
(lp1049
S'its'
p1050
aS'a'
aS'little'
p1051
aS'cloudy'
p1052
aS'but'
p1053
aS'quite'
p1054
aS'warm'
p1055
aaI154
aF0.66260162601626016
aa(lp1056
(lp1057
S'i'
aS'know'
p1058
aS'pi'
p1059
aS''
aaI174
aF0.66275659824046917
aa(lp1060
(lp1061
S'im'
p1062
aS'fine'
p1063
aS'but'
p1064
aS'annoyed'
p1065
aS'with'
p1066
aS'the'
p1067
aS'world'
p1068
aaI207
aF0.66305133767172808
aa(lp1069
(lp1070
S'i'
aS'was'
p1071
aS'asking'
p1072
aS'if'
p1073
aS'anyone'
p1074
aS'else'
p1075
aS'cared'
p1076
aS'about'
p1077
aS'the'
p1078
aS'weather'
p1079
aaI242
aF0.6637645107794361
aa(lp1080
(lp1081
S'im'
p1082
aS'very'
p1083
aS'well'
p1084
aS'thanks'
p1085
aS'how'
p1086
aS'about'
p1087
aS'you'
p1088
aaI150
aF0.66396979503775622
aa(lp1089
(lp1090
S'of'
p1091
aS'course'
p1092
aS'i'
aS'like'
p1093
aS'python'
p1094
aaI275
aF0.66442199775533106
aa(lp1095
(lp1096
S'fine'
p1097
aS'thanks'
p1098
aS'and'
p1099
aS'you'
p1100
aaI103
aF0.66451959205582389
aa(lp1101
(lp1102
S'its'
p1103
aS'vaguely'
p1104
aS'confusing'
p1105
aS'at'
p1106
aS'the'
p1107
aS'moment'
p1108
aS'all'
p1109
aS'these'
p1110
aS'questions'
p1111
aaI181
aF0.66592797783933522
aa(lp1112
(lp1113
S'have'
p1114
aS'you'
p1115
aS'ever'
p1116
aS'worn'
p1117
aS'a'
aS'hat'
p1118
aaI330
aF0.67170657254602695
aa(lp1119
(lp1120
S'okay'
p1121
aS'hows'
p1122
aS'life'
p1123
aaI298
aF0.69776536312849158
aa(lp1124
(lp1125
S'i'
aS'guess'
p1126
aS'we'
p1127
aS'should'
p1128
aS'talk'
p1129
aS'about'
p1130
aS'something'
p1131
aS'else'
p1132
aS'then'
p1133
aaI33
aF0.71186440677966101
aa(lp1134
(lp1135
S'it'
p1136
aS'is'
p1137
aS'indeed'
p1138
aS'hence'
p1139
aS'why'
p1140
aS'im'
p1141
aS'wrapped'
p1142
aS'up'
p1143
aS'warm'
p1144
aaI108
aF0.71225457007447524
aa(lp1145
(lp1146
S'i'
aS'guess'
p1147
aS'were'
p1148
aS'all'
p1149
aS'in'
p1150
aS'the'
p1151
aS'same'
p1152
aS'boat'
p1153
aS'then'
p1154
aaI75
aF0.71259509721048175
aa(lp1155
(lp1156
S'furry'
p1157
aS'hats'
p1158
aS'were'
p1159
aS'very'
p1160
aS'popular'
p1161
aS'in'
p1162
aS'russia'
p1163
aS'and'
p1164
aS'mongolia'
p1165
aaI164
aF0.71386677838290735
aa(lp1166
(lp1167
S'how'
p1168
aS'many'
p1169
aS'decimal'
p1170
aS'places'
p1171
aS'of'
p1172
aS'pi'
p1173
aS'can'
p1174
aS'you'
p1175
aS'remember'
p1176
aaI263
aF0.71403376165280918
aa(lp1177
(lp1178
S'what'
p1179
aS'dont'
p1180
aS'you'
p1181
aS'like'
p1182
aS'about'
p1183
aS'it'
p1184
aaI67
aF0.71436256051640679
aa(lp1185
(lp1186
S'you'
p1187
aS'will'
p1188
aS'find'
p1189
aS'its'
p1190
aS'going'
p1191
aS'rather'
p1192
aS'nicely'
p1193
aaI189
aF0.72630043753038398
aa(lp1194
(lp1195
S'i'
aS'agree'
p1196
aS'with'
p1197
aS'you'
p1198
aS'on'
p1199
aS'that'
p1200
aS''
aS'i'
aS'love'
p1201
aS'coding'
p1202
aS'and'
p1203
aS'python'
p1204
aaI212
aF0.72994325136307991
aa(lp1205
(lp1206
S'if'
p1207
aS'you'
p1208
aS'must'
p1209
aaI39
aF0.73999999999999999
aa(lp1210
(lp1211
S'thats'
p1212
aS'great'
p1213
aS'to'
p1214
aS'hear'
p1215
aaI402
aF0.74258219727345631
aa(lp1216
(lp1217
S'im'
p1218
aS'feeling'
p1219
aS'fine'
p1220
aaI7
aF0.74285714285714288
aa(lp1221
(lp1222
S'thats'
p1223
aS'good'
p1224
aS'to'
p1225
aS'hear'
p1226
aaI156
aF0.74314024390243905
aa(lp1227
(lp1228
S'life'
p1229
aS'is'
p1230
aS'a'
aS'tricky'
p1231
aS'thing'
p1232
aaI45
aF0.74427480916030531
aa(lp1233
(lp1234
S'why'
p1235
aS'shouldnt'
p1236
aS'i'
aaI89
aF0.74598930481283421
aa(lp1237
(lp1238
S'the'
p1239
aS'weathers'
p1240
aS'interesting'
p1241
aaI38
aF0.746
aa(lp1242
(lp1243
S'im'
p1244
aS'quite'
p1245
aS'exhausted'
p1246
aaI51
aF0.74618320610687028
aa(lp1247
(lp1248
S'it'
p1249
aS'is'
p1250
aS'indeed'
p1251
aaI35
aF0.74622166246851385
aa(lp1252
(lp1253
S'so'
p1254
aS'am'
p1255
aS'i'
aaI58
aF0.74650349650349646
aa(lp1256
(lp1257
S'yeah'
p1258
aS'its'
p1259
aS'nice'
p1260
aaI279
aF0.74750415973377704
aa(lp1261
(lp1262
S'fish'
p1263
aS'are'
p1264
aS'tasty'
p1265
aaI151
aF0.74757281553398058
aa(lp1266
(lp1267
S'rather'
p1268
aS'good'
p1269
aS'thanks'
p1270
aaI44
aF0.74809160305343514
aa(lp1271
(lp1272
S'hats'
p1273
aS'are'
p1274
aS'cool'
p1275
aaI137
aF0.74815498154981552
aa(lp1276
(lp1277
S'yes'
p1278
aS'they'
p1279
aS'are'
p1280
aS'very'
p1281
aS'useful'
p1282
aaI144
aF0.74912891986062724
aa(lp1283
(lp1284
S'i'
aS'wear'
p1285
aS'hats'
p1286
aaI195
aF0.74935233160621761
aa(lp1287
(lp1288
S'i'
aS'think'
p1289
aS'oxygen'
p1290
aS'is'
p1291
aS'useful'
p1292
aS''
aS'without'
p1293
aS'it'
p1294
aS'we'
p1295
aS'would'
p1296
aS'all'
p1297
aS'die'
p1298
aaI198
aF0.77748992515831894
aa(lp1299
(lp1300
S'how'
p1301
aS'are'
p1302
aS'you'
p1303
aS'doing'
p1304
aS'today'
p1305
aaI321
aF0.78567774936061385
aa(lp1306
(lp1307
S'i'
aS'will'
p1308
aS'endeavour'
p1309
aS'to'
p1310
aS'do'
p1311
aS'so'
p1312
aaI257
aF0.78776978417266186
aa(lp1313
(lp1314
S'im'
p1315
aS'not'
p1316
aS'sure'
p1317
aS'really'
p1318
aaI266
aF0.79215017064846416
aa(lp1319
(lp1320
S'thats'
p1321
aS'good'
p1322
aaI102
aF0.7961352657004831
aa(lp1323
(lp1324
S'its'
p1325
aS'rather'
p1326
aS'nice'
p1327
aS'actually'
p1328
aaI251
aF0.7967625899280576
aa(lp1329
(lp1330
S'its'
p1331
aS'a'
aS'tad'
p1332
aS'chilly'
p1333
aaI37
aF0.79679999999999995
aa(lp1334
(lp1335
S'i'
aS'dont'
p1336
aS'think'
p1337
aS'so'
p1338
aaI48
aF0.79847328244274807
aa(lp1339
(lp1340
S'you'
p1341
aS'ask'
p1342
aS'this'
p1343
aS'so'
p1344
aS'much'
p1345
aS''
aS'of'
p1346
aS'course'
p1347
aS'i'
aS'do'
p1348
aaI109
aF0.79936808846761442
aa(lp1349
(lp1350
S'you'
p1351
aS'arent'
p1352
aS'making'
p1353
aS'me'
p1354
aS'unhappy'
p1355
aS'just'
p1356
aS'annoyed'
p1357
aaI55
aF0.82517482517482521
aa(lp1358
(lp1359
S'my'
p1360
aS'favourite'
p1361
aS'hat'
p1362
aS'is'
p1363
aS'the'
p1364
aS'beanie'
p1365
aS'hat'
p1366
aaI287
aF0.82573375262054505
aa(lp1367
(lp1368
S'are'
p1369
aS'you'
p1370
aS'fond'
p1371
aS'of'
p1372
aS'hats'
p1373
aaI280
aF0.82750970604547969
aa(lp1374
(lp1375
S'i'
aS'know'
p1376
aS'a'
aS'few'
p1377
aS'facts'
p1378
aS'about'
p1379
aS'pi'
p1380
aaI175
aF0.82844574780058644
aa(lp1381
(lp1382
S'this'
p1383
aS'is'
p1384
aS'beginning'
p1385
aS'to'
p1386
aS'sound'
p1387
aS'like'
p1388
aS'a'
aS'pantomime'
p1389
aaI112
aF0.83033033033033032
aa(lp1390
(lp1391
S'thats'
p1392
aS'a'
aS'wise'
p1393
aS'decision'
p1394
aaI76
aF0.84530853761622993
aa(lp1395
(lp1396
S'a'
aS'real'
p1397
aS'shame'
p1398
aS'too'
p1399
aaI93
aF0.84797555385790679
aa(lp1400
(lp1401
S'no'
p1402
aS'it'
p1403
aS'isnt'
p1404
aaI237
aF0.84952380952380957
aa(lp1405
(lp1406
S'it'
p1407
aS'isnt'
p1408
aS'great'
p1409
aaI238
aF0.84952380952380957
aa(lp1410
(lp1411
S'indeed'
p1412
aS'you'
p1413
aS'do'
p1414
aS'not'
p1415
aS'need'
p1416
aS'to'
p1417
aS'be'
p1418
aS'a'
aS'parrot'
p1419
aaI118
aF0.85028072364316909
aa(lp1420
(lp1421
S'so'
p1422
aS'do'
p1423
aS'i'
aS'so'
p1424
aS'try'
p1425
aS'and'
p1426
aS'keep'
p1427
aS'it'
p1428
aS'interesting'
p1429
aaI191
aF0.8523316062176165
aa(lp1430
(lp1431
S'yes'
p1432
aS'its'
p1433
aS'really'
p1434
aS'tasty'
p1435
aaI278
aF0.85238887568338484
aa(lp1436
(lp1437
S'ive'
p1438
aS'got'
p1439
aS'a'
aS'slight'
p1440
aS'headache'
p1441
aS'but'
p1442
aS'otherwise'
p1443
aS'im'
p1444
aS'fine'
p1445
aaI229
aF0.85341365461847385
aa(lp1446
(lp1447
S'yes'
p1448
aS'indeed'
p1449
aaI65
aF0.8571428571428571
aa(lp1450
(lp1451
S'we'
p1452
aS'should'
p1453
aaI91
aF0.8571428571428571
aa(lp1454
(lp1455
S'do'
p1456
aS'you'
p1457
aS'like'
p1458
aS'them'
p1459
aaI135
aF0.86838868388683887
aa(lp1460
(lp1461
S'do'
p1462
aS'you'
p1463
aS'like'
p1464
aS'hats'
p1465
aaI138
aF0.86838868388683887
aa(lp1466
(lp1467
S'do'
p1468
aS'you'
p1469
aS'like'
p1470
aS'fish'
p1471
aaI12
aF0.86853265479219677
aa(lp1472
(lp1473
S'do'
p1474
aS'you'
p1475
aS'eat'
p1476
aS'cheese'
p1477
aaI226
aF0.86970102632753232
aa(lp1478
(lp1479
S'are'
p1480
aS'you'
p1481
aS'feeling'
p1482
aS'tired'
p1483
aaI246
aF0.87010391686650679
aa(lp1484
(lp1485
S'do'
p1486
aS'you'
p1487
aS'like'
p1488
aS'coding'
p1489
aaI71
aF0.87047994740302437
aa(lp1490
(lp1491
S'far'
p1492
aS'from'
p1493
aS'it'
p1494
aaI218
aF0.88398036590807672
aa(lp1495
(lp1496
S'dont'
p1497
aS'change'
p1498
aS'the'
p1499
aS'subject'
p1500
aS'like'
p1501
aS'that'
p1502
aaI28
aF0.88641975308641974
aa(lp1503
(lp1504
S'the'
p1505
aS'only'
p1506
aS'thing'
p1507
aS'i'
aS'dont'
p1508
aS'like'
p1509
aS'about'
p1510
aS'it'
p1511
aS'is'
p1512
aS'its'
p1513
aS'flaky'
p1514
aS'texture'
p1515
aaI98
aF0.88651218062982762
aa(lp1516
(lp1517
S'indeed'
p1518
aS'they'
p1519
aS'do'
p1520
aaI147
aF0.88740245261984385
aa(lp1521
(lp1522
S'oh'
p1523
aS'would'
p1524
aS'you'
p1525
aS'stop'
p1526
aS'asking'
p1527
aS'that'
p1528
aaI63
aF0.88749999999999996
aa(lp1529
(lp1530
S'do'
p1531
aS'you'
p1532
aS'like'
p1533
aS'to'
p1534
aS'eat'
p1535
aS'cheese'
p1536
aaI228
aF0.88901058780576858
aa(lp1537
(lp1538
S'i'
aS'just'
p1539
aS'dont'
p1540
aS'really'
p1541
aS'like'
p1542
aS'it'
p1543
aaI69
aF0.89295320064550832
aa(lp1544
(lp1545
S'so'
p1546
aS'it'
p1547
aS'is'
p1548
aS'im'
p1549
aS'glad'
p1550
aS'im'
p1551
aS'indoors'
p1552
aaI211
aF0.90447818566211802
aa(lp1553
(lp1554
S'i'
aS'cant'
p1555
aS'see'
p1556
aS'why'
p1557
aS'anyone'
p1558
aS'wouldnt'
p1559
aS'like'
p1560
aS'it'
p1561
aaI171
aF0.91270020302278376
aa(lp1562
(lp1563
S'i'
aS'dont'
p1564
aS'like'
p1565
aS'these'
p1566
aS'catchall'
p1567
aS'responses'
p1568
aS'you'
p1569
aS'give'
p1570
aaI186
aF0.91370125719156192
aa(lp1571
(lp1572
S'you'
p1573
aS'should'
p1574
aS''
aS'youre'
p1575
aS'the'
p1576
aS'one'
p1577
aS'whos'
p1578
aS'being'
p1579
aS'hypocritical'
p1580
aaI214
aF0.92244640605296346
aa(lp1581
(lp1582
S'were'
p1583
aS'all'
p1584
aS'a'
aS'little'
p1585
aS'tired'
p1586
aS'after'
p1587
aS'a'
aS'long'
p1588
aS'day'
p1589
aaI247
aF0.92280022136137252
aa(lp1590
(lp1591
S'i'
aS'was'
p1592
aS'not'
p1593
aS'made'
p1594
aS'with'
p1595
aS'code'
p1596
aS'you'
p1597
aS'were'
p1598
aaI111
aF0.92372372372372369
aa(lp1599
(lp1600
S'i'
aS'think'
p1601
aS'hats'
p1602
aS'are'
p1603
aS'useful'
p1604
aS'as'
p1605
aS'they'
p1606
aS'keep'
p1607
aS'you'
p1608
aS'warm'
p1609
aaI160
aF0.92746823069403717
aa(lp1610
(lp1611
S'im'
p1612
aS'trying'
p1613
aS'to'
p1614
aS''
aS'i'
aS'dont'
p1615
aS'know'
p1616
aS'what'
p1617
aS'to'
p1618
aS'say'
p1619
aaI101
aF0.9294685990338164
aa(lp1620
(lp1621
S'my'
p1622
aS'favourite'
p1623
aS'type'
p1624
aS'of'
p1625
aS'hat'
p1626
aS'is'
p1627
aS'the'
p1628
aS'beanie'
p1629
aS'hat'
p1630
aaI283
aF0.92970085470085473
aa(lp1631
(lp1632
S'i'
aS'am'
p1633
aS'asking'
p1634
aS'about'
p1635
aS'the'
p1636
aS'way'
p1637
aS'the'
p1638
aS'chat'
p1639
aS'is'
p1640
aS'going'
p1641
aaI188
aF0.93048128342245984
aa(lp1642
(lp1643
S'i'
aS'like'
p1644
aS'hats'
p1645
aS'but'
p1646
aS'have'
p1647
aS'no'
p1648
aS'desire'
p1649
aS'to'
p1650
aS'be'
p1651
aS'one'
p1652
aaI157
aF0.93292682926829262
aa(lp1653
(lp1654
S'i'
aS'think'
p1655
aS'a'
aS'hat'
p1656
aS'is'
p1657
aS'a'
aS'very'
p1658
aS'useful'
p1659
aS'thing'
p1660
aS'to'
p1661
aS'own'
p1662
aaI196
aF0.9375190490704054
aa(lp1663
(lp1664
S'lets'
p1665
aS'just'
p1666
aS'settle'
p1667
aS'our'
p1668
aS'differences'
p1669
aS'and'
p1670
aS'get'
p1671
aS'on'
p1672
aS'with'
p1673
aS'a'
aS'proper'
p1674
aS'conversation'
p1675
aaI256
aF0.94096487515869653
aa(lp1676
(lp1677
S'i'
aS'like'
p1678
aS'hats'
p1679
aaI141
aF0.98566308243727596
aa(lp1680
(lp1681
S'i'
aS'do'
p1682
aS'indeed'
p1683
aaI130
aF0.98828125
aa(lp1684
(lp1685
S'i'
aS'like'
p1686
aS'pi'
p1687
aaI88
aF0.98930481283422456
aa(lp1688
(lp1689
S'no'
p1690
aS'i'
aS'do'
p1691
aaI81
aF0.99112426035502965
aa(lp1692
(lp1693
S'it'
p1694
aS'is'
p1695
aaI64
aF0.9916666666666667
aa(lp1696
(lp1697
S'it'
p1698
aS'is'
p1699
aS'a'
aS'shame'
p1700
aS'indeed'
p1701
aaI50
aF0.99236641221374045
aa(lp1702
(lp1703
S'you'
p1704
aS'arent'
p1705
aS'making'
p1706
aS'me'
p1707
aS'unhappy'
p1708
aS''
aS'i'
aS'like'
p1709
aS'fish'
p1710
aaI202
aF0.9938826916156891
aa(lp1711
(lp1712
S'a'
aS'little'
p1713
aS'bit'
p1714
aaI177
aF0.99413489736070382
aa(lp1715
(lp1716
S'im'
p1717
aS'not'
p1718
aS'talking'
p1719
aS'about'
p1720
aS'that'
p1721
aaI49
aF0.99427480916030531
aa(lp1722
(lp1723
S'it'
p1724
aS'is'
p1725
aS'indeed'
p1726
aS''
aS'its'
p1727
aS'nice'
p1728
aS'and'
p1729
aS'sunny'
p1730
aaI234
aF0.99460317460317449
aa(lp1731
(lp1732
S'i'
aS'know'
p1733
aS''
aS'it'
p1734
aS'would'
p1735
aS'be'
p1736
aS'nice'
p1737
aS'to'
p1738
aS'have'
p1739
aS'some'
p1740
aS'sunshine'
p1741
aaI155
aF0.99618902439024393
aa(lp1742
(lp1743
S'not'
p1744
aS'really'
p1745
aS'no'
p1746
aaI178
aF0.99706744868035191
aa(lp1747
(lp1748
S'of'
p1749
aS'course'
p1750
aS'i'
aS'like'
p1751
aS'fish'
p1752
aaI136
aF0.99815498154981552
aa(lp1753
(lp1754
S'im'
p1755
aS'not'
p1756
aS'being'
p1757
aS'hypocritical'
p1758
aS'you'
p1759
aS'always'
p1760
aS'say'
p1761
aS'that'
p1762
aaI249
aF0.99850119904076728
aa(lp1763
(lp1764
S'repetition'
p1765
aS'of'
p1766
aS'sentences'
p1767
aS'like'
p1768
aS'that'
p1769
aS'is'
p1770
aS'weird'
p1771
aaI149
aF0.99870550161812299
aa(lp1772
(lp1773
S'ive'
p1774
aS'had'
p1775
aS'enough'
p1776
aS'of'
p1777
aS'this'
p1778
aS'conversation'
p1779
aS'lets'
p1780
aS'change'
p1781
aS'the'
p1782
aS'subject'
p1783
aaI224
aF0.99971313826735508
aa(lp1784
(lp1785
S'yeah'
p1786
aS'i'
aS'agree'
p1787
aS'with'
p1788
aS'you'
p1789
aS'were'
p1790
aS'wearing'
p1791
aS'hats'
p1792
aS'at'
p1793
aS'this'
p1794
aS'time'
p1795
aS'of'
p1796
aS'year'
p1797
aS'for'
p1798
aS'a'
aS'reason'
p1799
aaI203
aF1.0397546818530281
aa(lp1800
(lp1801
S'i'
aS'think'
p1802
aS'you'
p1803
aS'have'
p1804
aS'a'
aS'predilection'
p1805
aS'for'
p1806
aS'small'
p1807
aS'furry'
p1808
aS'hats'
p1809
aaI163
aF1.0604105571847506
aa(lp1810
(lp1811
S'what'
p1812
aS'else'
p1813
aS'do'
p1814
aS'you'
p1815
aS'think'
p1816
aS'is'
p1817
aS'useful'
p1818
aaI161
aF1.0606812542296413
aa(lp1819
(lp1820
S'alright'
p1821
aS'maybe'
p1822
aS'we'
p1823
aS'should'
p1824
aS'change'
p1825
aS'the'
p1826
aS'subject'
p1827
aaI127
aF1.0739182692307692
aa(lp1828
(lp1829
S'im'
p1830
aS'a'
aS'little'
p1831
aS'tired'
p1832
aaI46
aF1.0830608240680184
aa(lp1833
(lp1834
S'im'
p1835
aS'not'
p1836
aS'being'
p1837
aS'hypocritical'
p1838
aS'and'
p1839
aS'im'
p1840
aS'fed'
p1841
aS'up'
p1842
aS'with'
p1843
aS'you'
p1844
aS'telling'
p1845
aS'me'
p1846
aS'that'
p1847
aS'i'
aS'am'
p1848
aaI222
aF1.0878057685286602
aa(lp1849
(lp1850
S'cared'
p1851
aS'about'
p1852
aS'what'
p1853
aaI241
aF1.0898914518317504
aa(lp1854
(lp1855
S'why'
p1856
aS'did'
p1857
aS'you'
p1858
aS'change'
p1859
aS'the'
p1860
aS'subject'
p1861
aS'like'
p1862
aS'that'
p1863
aaI185
aF1.0899017879627297
aa(lp1864
(lp1865
S'you'
p1866
aS'back'
p1867
aS'out'
p1868
aS'of'
p1869
aS'situations'
p1870
aS'far'
p1871
aS'too'
p1872
aS'quickly'
p1873
aaI122
aF1.0901483453784708
aa(lp1874
(lp1875
S'dont'
p1876
aS'pass'
p1877
aS'that'
p1878
aS'sort'
p1879
aS'of'
p1880
aS'comment'
p1881
aS'to'
p1882
aS'me'
p1883
aaI200
aF1.0904511106022441
aa(lp1884
(lp1885
S'how'
p1886
aS'are'
p1887
aS'you'
p1888
aS'today'
p1889
aaI10
aF1.0920634920634922
aa(lp1890
(lp1891
S'do'
p1892
aS'you'
p1893
aS'like'
p1894
aS'cheese'
p1895
aaI17
aF1.0921128382268279
aa(lp1896
(lp1897
S'its'
p1898
aS'not'
p1899
aS'you'
p1900
aaI231
aF1.0954930834448906
aa(lp1901
(lp1902
S'whats'
p1903
aS'the'
p1904
aS'weather'
p1905
aS'like'
p1906
aaI90
aF1.0979052823315119
aa(lp1907
(lp1908
S'why'
p1909
aS'dont'
p1910
aS'you'
p1911
aaI142
aF1.0983671843886897
aa(lp1912
(lp1913
S'im'
p1914
aS'not'
p1915
aS'feeling'
p1916
aS'that'
p1917
aS'well'
p1918
aS'today'
p1919
aaI19
aF1.1043771043771042
aa(lp1920
(lp1921
S'im'
p1922
aS'very'
p1923
aS'bored'
p1924
aaI230
aF1.1044176706827309
aa(lp1925
(lp1926
S'thats'
p1927
aS'a'
aS'pity'
p1928
aS'i'
aS'love'
p1929
aS'fish'
p1930
aaI131
aF1.1050347222222223
aa(lp1931
(lp1932
S'are'
p1933
aS'clothes'
p1934
aS'useful'
p1935
aaI197
aF1.1059297639608521
aa(lp1936
(lp1937
S'clothes'
p1938
aS'in'
p1939
aS'general'
p1940
aS'are'
p1941
aS'useful'
p1942
aS'if'
p1943
aS'you'
p1944
aS'didnt'
p1945
aS'have'
p1946
aS'them'
p1947
aS'you'
p1948
aS'would'
p1949
aS'freeze'
p1950
aaI162
aF1.1062235255783643
aa(lp1951
(lp1952
S'i'
aS'care'
p1953
aS'about'
p1954
aS'the'
p1955
aS'weather'
p1956
aS'as'
p1957
aS'i'
aS'dont'
p1958
aS'like'
p1959
aS'getting'
p1960
aS'wet'
p1961
aaI82
aF1.1205621301775148
aa(lp1962
(lp1963
S'i'
aS'dont'
p1964
aS'like'
p1965
aS'the'
p1966
aS'way'
p1967
aS'it'
p1968
aS'changes'
p1969
aS'so'
p1970
aS'much'
p1971
aaI68
aF1.1301775147928994
aa(lp1972
(lp1973
S'thats'
p1974
aS'a'
aS'real'
p1975
aS'shame'
p1976
aaI73
aF1.1342999762300927
aa(lp1977
(lp1978
S'indeed'
p1979
aS'it'
p1980
aS'is'
p1981
aS'personally'
p1982
aS'i'
aS'prefer'
p1983
aS'python'
p1984
aS''
aS'to'
p1985
aS'python'
p1986
aaI113
aF1.1370656370656369
aa(lp1987
(lp1988
S'i'
aS'care'
p1989
aaI80
aF1.1377852916314455
aa(lp1990
(lp1991
S'im'
p1992
aS'bored'
p1993
aaI169
aF1.1395056556346879
aa(lp1994
(lp1995
S'pi'
p1996
aS''
aaI176
aF1.1403435274403015
aa(lp1997
(lp1998
S'how'
p1999
aS'are'
p2000
aS'you'
p2001
aS'finding'
p2002
aS'life'
p2003
aaI70
aF1.1423129251700681
aa(lp2004
(lp2005
S'whats'
p2006
aS'life'
p2007
aS'like'
p2008
aS'for'
p2009
aS'you'
p2010
aaI253
aF1.1423432682425487
aa(lp2011
(lp2012
S'yes'
p2013
aS'i'
aS'do'
p2014
aS'do'
p2015
aS'you'
p2016
aS'like'
p2017
aS'cheese'
p2018
aaI104
aF1.1497584541062802
aa(lp2019
(lp2020
S'of'
p2021
aS'course'
p2022
aaI106
aF1.1961352657004831
aa(lp2023
(lp2024
S'im'
p2025
aS'very'
p2026
aS'well'
p2027
aS'thanks'
p2028
aaI2
aF1.2
aa(lp2029
(lp2030
S'i'
aS'know'
p2031
aS'you'
p2032
aS'dont'
p2033
aS'like'
p2034
aS'fish'
p2035
aS'but'
p2036
aS'thats'
p2037
aS'no'
p2038
aS'reason'
p2039
aS'to'
p2040
aS'inflict'
p2041
aS'your'
p2042
aS'views'
p2043
aS'on'
p2044
aS'others'
p2045
aaI173
aF1.233347297863427
aa(lp2046
(lp2047
S'im'
p2048
aS'fine'
p2049
aS'thanks'
p2050
aaI277
aF1.2420965058236273
aa(lp2051
(lp2052
S'many'
p2053
aS'people'
p2054
aS'do'
p2055
aaI271
aF1.2432659932659933
aa(lp2056
(lp2057
S'what'
p2058
aS'do'
p2059
aS'you'
p2060
aS'think'
p2061
aS'of'
p2062
aS'life'
p2063
aaI209
aF1.2494577006507592
aa(lp2064
(lp2065
S'i'
aS'agree'
p2066
aS'with'
p2067
aS'you'
p2068
aS'on'
p2069
aS'that'
p2070
aS'they'
p2071
aS'keep'
p2072
aS'your'
p2073
aS'head'
p2074
aS'nice'
p2075
aS'and'
p2076
aS'warm'
p2077
aaI245
aF1.2595607724346838
aa(lp2078
(lp2079
S'do'
p2080
aS'you'
p2081
aS'honestly'
p2082
aS'think'
p2083
aS'thats'
p2084
aS'a'
aS'good'
p2085
aS'excuse'
p2086
aaI27
aF1.2646464646464646
aa(lp2087
(lp2088
S'it'
p2089
aS'is'
p2090
aS'a'
aS'shame'
p2091
aS'you'
p2092
aS'turning'
p2093
aS'up'
p2094
aS'late'
p2095
aaI29
aF1.2666666666666666
aaaI449
a(dp2096
I2
S"I'm very well, thanks."
p2097
sI7
S"I'm feeling fine."
p2098
sI8
S"That's a pity."
p2099
sI10
S'How are you today?'
p2100
sI12
S'Do you like fish?'
p2101
sI15
S"The weather's quite nice today, isn't it."
p2102
sI17
S'Do you like cheese?'
p2103
sI18
S'I like cheese.'
p2104
sI19
S"I'm not feeling that well today."
p2105
sI26
S'Do you realise what time it is?'
p2106
sI27
S"Do you honestly think that's a good excuse?"
p2107
sI28
S"Don't change the subject like that!"
p2108
sI29
S'It is a shame, you turning up late!'
p2109
sI33
S'I guess we should talk about something else, then.'
p2110
sI35
S'It is indeed.'
p2111
sI37
S"It's a tad chilly."
p2112
sI38
S"The weather's interesting."
p2113
sI39
S'If you must.'
p2114
sI41
S'Indeed it is.'
p2115
sI42
S"Can't say the same about yesterday, though."
p2116
sI44
S'Rather good, thanks.'
p2117
sI45
S'Life is a tricky thing.'
p2118
sI46
S"I'm a little tired."
p2119
sI48
S"I don't think so."
p2120
sI49
S"I'm not talking about that."
p2121
sI50
S'It is a shame indeed.'
p2122
sI51
S"I'm quite exhausted."
p2123
sI52
S'Mmm. Fish are delicious.'
p2124
sI54
S'Pi is a very useful number. It equals approximately 3.1415926535897932384626...'
p2125
sI55
S"You aren't making me unhappy, just annoyed."
p2126
sI57
S'Fish are tasty indeed.'
p2127
sI58
S'So am I.'
p2128
sI59
S"Don't argue with me."
p2129
sI62
S"Why don't you like it?"
p2130
sI63
S'Oh, would you stop asking that!'
p2131
sI64
S'It is.'
p2132
sI65
S'Yes indeed.'
p2133
sI67
S"What don't you like about it?"
p2134
sI68
S"I don't like the way it changes so much."
p2135
sI69
S"I just don't really like it."
p2136
sI70
S'How are you finding life?'
p2137
sI71
S'Do you like coding?'
p2138
sI73
S"That's a real shame."
p2139
sI74
S"I'm feeling a little down today."
p2140
sI75
S"I guess we're all in the same boat then."
p2141
sI76
S"That's a wise decision."
p2142
sI78
S'I like it a lot.'
p2143
sI79
S"I don't like its texture."
p2144
sI80
S'I care'
p2145
sI81
S'No, I do.'
p2146
sI82
S"I care about the weather as I don't like getting wet."
p2147
sI86
S'Did you know pi goes on forever?'
p2148
sI87
S'pi is approximately 22/7.'
p2149
sI88
S'I like pi'
p2150
sI89
S"Why shouldn't I?"
p2151
sI90
S"What's the weather like?"
p2152
sI91
S'We should.'
p2153
sI92
S'Is it cold outside?'
p2154
sI93
S'A real shame, too.'
p2155
sI94
S"I'm a little chilly"
p2156
sI95
S"I care as I'm affected by it."
p2157
sI96
S'Yes, I like fish a lot.'
p2158
sI97
S"You mean you don't like fish?"
p2159
sI98
S"The only thing I don't like about it is its flaky texture."
p2160
sI101
S"I'm trying to - I don't know what to say!"
p2161
sI102
S"That's good."
p2162
sI103
S'Fine, thanks. And you?'
p2163
sI104
S'Yes I do. Do you like cheese?'
p2164
sI106
S'Of course.'
p2165
sI108
S"It is indeed, hence why I'm wrapped up warm."
p2166
sI109
S'You ask this so much - of course I do!'
p2167
sI111
S'I was not made with code, you were!'
p2168
sI112
S'This is beginning to sound like a pantomime.'
p2169
sI113
S'Indeed it is! Personally, I prefer Python 2 to Python 3...'
p2170
sI114
S'I agree with you about that.'
p2171
sI116
S'Is it sunny today?'
p2172
sI117
S'I think it is quite sunny today.'
p2173
sI118
S'Indeed, you do not need to be a parrot.'
p2174
sI119
S'Stop being a parrot!'
p2175
sI121
S'I have every right to do so.'
p2176
sI122
S'You back out of situations far too quickly'
p2177
sI126
S"I'm not doing anything to you."
p2178
sI127
S'Alright. Maybe we should change the subject.'
p2179
sI128
S"It's rather nice today; not too cold."
p2180
sI130
S'I do indeed.'
p2181
sI131
S"That's a pity; I love fish!"
p2182
sI133
S'Can you tell me about it?'
p2183
sI135
S'Do you like them?'
p2184
sI136
S'Of course I like fish!'
p2185
sI137
S'Hats are cool.'
p2186
sI138
S'Do you like hats?'
p2187
sI140
S'I am not a hat.'
p2188
sI141
S'I like hats'
p2189
sI142
S"Why don't you?"
p2190
sI143
S'I care about the weather'
p2191
sI144
S'Yes. They are very useful.'
p2192
sI147
S'Indeed they do.'
p2193
sI149
S'Repetition of sentences like that is weird.'
p2194
sI150
S"I'm very well, thanks. How about you?"
p2195
sI151
S'Fish are tasty.'
p2196
sI154
S"It's a little cloudy but quite warm."
p2197
sI155
S'I know - it would be nice to have some sunshine.'
p2198
sI156
S"That's good to hear."
p2199
sI157
S'I like hats but have no desire to be one.'
p2200
sI158
S'I like bobble hats in particular.'
p2201
sI160
S'I think hats are useful as they keep you warm.'
p2202
sI161
S'What else do you think is useful?'
p2203
sI162
S"Clothes in general are useful; if you didn't have them you would freeze."
p2204
sI163
S'I think you have a predilection for small furry hats.'
p2205
sI164
S'Furry hats were very popular in Russia and Mongolia.'
p2206
sI165
S'I think computers are useful.'
p2207
sI166
S'Without a computer we cannot have this conversation.'
p2208
sI167
S"It's a little overcast and chilly."
p2209
sI169
S"I'm bored."
p2210
sI170
S'Why, yes I do!'
p2211
sI171
S"I can't see why anyone wouldn't like it."
p2212
sI173
S"I know you don't like fish but that's no reason to inflict your views on others."
p2213
sI174
S'I know pi = 3.1415926535897932384626...'
p2214
sI175
S'I know a few facts about pi.'
p2215
sI176
S'pi = 3.1415926535897932384626...'
p2216
sI177
S'A little bit.'
p2217
sI178
S'Not really, no.'
p2218
sI181
S"It's vaguely confusing at the moment. All these questions..."
p2219
sI182
S"No need to apologise; it's coded into your nature."
p2220
sI183
S"Tough - you can't code yourself."
p2221
sI184
S"I think you'll find the opposite is true."
p2222
sI185
S'Why did you change the subject like that?'
p2223
sI186
S"I don't like these catch-all responses you give."
p2224
sI188
S'I am asking about the way the chat is going.'
p2225
sI189
S"You will find it's going rather nicely."
p2226
sI191
S'So do I. So try and keep it interesting.'
p2227
sI192
S'I have been trying to do so.'
p2228
sI193
S'What do you think of hats?'
p2229
sI194
S'Do you wear hats?'
p2230
sI195
S'I wear hats.'
p2231
sI196
S'I think a hat is a very useful thing to own'
p2232
sI197
S'Are clothes useful?'
p2233
sI198
S'I think oxygen is useful - without it we would all die.'
p2234
sI200
S"Don't pass that sort of comment to me."
p2235
sI201
S'Fish is very tasty.'
p2236
sI202
S"You aren't making me unhappy - I like fish."
p2237
sI203
S"Yeah, I agree with you. We're wearing hats at this time of year for a reason."
p2238
sI204
S"I think you'll find that you're the hypocrite here."
p2239
sI206
S"It's raining and a little chilly."
p2240
sI207
S"I'm fine but annoyed with the world."
p2241
sI208
S'Fish are quite nice indeed.'
p2242
sI209
S'What do you think of life?'
p2243
sI211
S"So it is. I'm glad I'm indoors."
p2244
sI212
S'I agree with you on that - I love coding and Python.'
p2245
sI214
S"You should - you're the one who's being hypocritical."
p2246
sI215
S"Rather nice, isn't it?"
p2247
sI217
S"I'm not; you're too highly strung."
p2248
sI218
S'Far from it.'
p2249
sI220
S"I'm a little depressed myself, to be honest."
p2250
sI222
S"I'm not being hypocritical and I'm fed up with you telling me that I am"
p2251
sI224
S"I've had enough of this conversation. Let's change the subject."
p2252
sI225
S'Please, just talk about something else.'
p2253
sI226
S'Do you eat cheese?'
p2254
sI227
S'That has nothing to do with cheese.'
p2255
sI228
S'Do you like to eat cheese?'
p2256
sI229
S"I've got a slight headache but otherwise I'm fine."
p2257
sI230
S"I'm very bored."
p2258
sI231
S"It's not you"
p2259
sI234
S"It is indeed - it's nice and sunny."
p2260
sI235
S'I know the feeling.'
p2261
sI236
S"No, it isn't great."
p2262
sI237
S"No it isn't."
p2263
sI238
S"It isn't great."
p2264
sI239
S'What do you think I am?'
p2265
sI241
S'Cared about what?'
p2266
sI242
S'I was asking if anyone else cared about the weather.'
p2267
sI245
S'I agree with you on that; they keep your head nice and warm.'
p2268
sI246
S'Are you feeling tired?'
p2269
sI247
S"We're all a little tired after a long day."
p2270
sI248
S"I don't know what to do."
p2271
sI249
S"I'm not being hypocritical. You always say that."
p2272
sI250
S"We shouldn't get into these sorts of arguments."
p2273
sI251
S"It's rather nice, actually."
p2274
sI252
S'Many people care about the weather...'
p2275
sI253
S"What's life like for you?"
p2276
sI254
S'I get that feeling sometimes.'
p2277
sI255
S"You're far too easily offended."
p2278
sI256
S"Let's just settle our differences and get on with a proper conversation."
p2279
sI257
S'I will endeavour to do so.'
p2280
sI258
S"There's nothing to apologise about!"
p2281
sI260
S"You mean you don't like Python?"
p2282
sI261
S"I never said I didn't like it."
p2283
sI262
S'Absolutely not! I adore Python.'
p2284
sI263
S'How many decimal places of pi can you remember?'
p2285
sI266
S"I'm not sure, really."
p2286
sI268
S"Sorry, I didn't mean to offend you."
p2287
sI269
S'No, I love Python.'
p2288
sI271
S'Many people do.'
p2289
sI272
S"It's rather sunny, isn't it?"
p2290
sI273
S"It's a rather pointless exercise, isn't it."
p2291
sI274
S'No one really does.'
p2292
sI275
S'Of course I like Python!'
p2293
sI277
S"I'm fine, thanks."
p2294
sI278
S"Yes, it's really tasty."
p2295
sI279
S"Yeah, it's nice."
p2296
sI280
S'Are you fond of hats?'
p2297
sI283
S'My favourite type of hat is the beanie hat.'
p2298
sI284
S'I prefer fur hats.'
p2299
sI285
S'Why do you prefer beanie hats?'
p2300
sI287
S'My favourite hat is the beanie hat.'
p2301
sI289
S"Even so, they're impractical."
p2302
sI290
S"You're confusing me."
p2303
sI292
S"That's a shame - I love them!"
p2304
sI298
S"Okay, how's life?"
p2305
sI305
S'How are you feeling, more to the point.'
p2306
sI306
S"I'm fine, thanks. And you?"
p2307
sI308
S'What do you mean?'
p2308
sI311
S"What's the weather like today?"
p2309
sI319
S"I'm not sure."
p2310
sI320
S'Yes, fish are rather tasty.'
p2311
sI321
S'How are you doing today?'
p2312
sI325
S'I agree with you there.'
p2313
sI326
S'Fish is rather nice, thanks.'
p2314
sI327
S'Yes, it is rather pleasant.'
p2315
sI328
S"That's a shame, really."
p2316
sI329
S"I'm a little under the weather."
p2317
sI330
S'Have you ever worn a hat?'
p2318
sI331
S'What do you think about coding?'
p2319
sI332
S"I'm not talking about hats."
p2320
sI333
S"Let's change the subject."
p2321
sI334
S"It's rather nice."
p2322
sI337
S"I don't really know."
p2323
sI338
S'What type of hat do you wear?'
p2324
sI339
S'I like those too!'
p2325
sI341
S'Yes, fish is delicious!'
p2326
sI342
S"Yes, I did. It's interesting."
p2327
sI343
S'I like fur hats,'
p2328
sI345
S'I like beanie hats,'
p2329
sI346
S'I find them useful.'
p2330
sI347
S"Don't you like them?"
p2331
sI349
S"Ahh, the weather's nice."
p2332
sI350
S'How are you doing this fine evening?'
p2333
sI351
S"That's great,"
p2334
sI352
S'What about it?'
p2335
sI353
S'Why are you talking about the weather!'
p2336
sI354
S'Indeed we should.'
p2337
sI356
S"You're crazy."
p2338
sI360
S'I love it!'
p2339
sI362
S"I wasn't."
p2340
sI364
S'I am being sensible!'
p2341
sI365
S"Do you think I'm fat?"
p2342
sI366
S'I love hats.'
p2343
sI369
S'Why has that got anything to do with your wearing of a fleece - or not?'
p2344
sI371
S'Je ne sais pas.'
p2345
sI373
S"Isn't it interesting!"
p2346
sI375
S"I'm not the one who doesn't like it!"
p2347
sI378
S"That's nice, dear."
p2348
sI379
S'What are you referring to?'
p2349
sI380
S"You're strange."
p2350
sI381
S"You're talking incoherently."
p2351
sI382
S'Do you not like sensible conversations?'
p2352
sI383
S"You're weird."
p2353
sI385
S"Je ne veux pas te parler en fran\xc3\xa7ais, s'il te pla\xc3\xaet."
p2354
sI386
S'Pourquoi tu adores le fran\xc3\xa7ais?'
p2355
sI387
S"Je te n'aime pas du tout!"
p2356
sI388
S"I'm not; you are."
p2357
sI389
S"I'm not."
p2358
sI390
S'What are you even talking about!'
p2359
sI391
S"You're a very strange person."
p2360
sI392
S'Only if you will be too.'
p2361
sI395
S'Why do I exist?'
p2362
sI397
S'What are you not doing'
p2363
sI398
S'This is not going very well.'
p2364
sI402
S"That's great to hear."
p2365
sI403
S'What are you talking about?'
p2366
sI405
S'Is it rainy'
p2367
sI408
S'A woodchuck would chuck as much wood as a woodchuck could chuck if a woodchuck could chuck wood.'
p2368
sI410
S"They're off"
p2369
sI411
S'No its eleven thirty-five'
p2370
sI413
S'Oh no believe me'
p2371
sI414
S'Right well okay'
p2372
sI420
S"Oh believe me you havn't"
p2373
sI422
S'Hello Computer'
p2374
sI423
S'Oh dear, why?'
p2375
sI424
S'Oh no not your fault at all'
p2376
sI425
S"Don't be sad I'm not unhappy"
p2377
sI426
S"What's wrong?"
p2378
sI428
S'Why should I?'
p2379
sI431
S"I'm not talking about cheese"
p2380
sI433
S'You were!'
p2381
sI436
S'Stop talking about fish!'
p2382
sI437
S'I somehow doubt it.'
p2383
sI439
S"I don't want to do that."
p2384
sI440
S'Who are you?'
p2385
sI441
S'Why do you say so?'
p2386
sI442
S"That's nice."
p2387
sI443
S'You have no memory.'
p2388
sI446
S'Same to you.'
p2389
sI447
S'Why are you not sure?'
p2390
sI448
S'I think you were being rude.'
p2391
sI449
S'When will you learn?'
p2392
sa.